target datalayout = "e-m:e-p270:32:32-p271:32:32-p272:64:64-i64:64-i128:128-f80:128-n8:16:32:64-S128"
target triple = "x86_64-pc-linux-gnu"

%struct.SurfaceDataRasInfo = type { %struct.SurfaceDataBounds, ptr, i32, i32, i32, i32, ptr, ptr, ptr, ptr, ptr, ptr, i32, %union.anon.0 }
%struct.SurfaceDataBounds = type { i32, i32, i32, i32 }
%union.anon.0 = type { ptr, [56 x i8] }

@mul8table = external global [256 x [256 x i8]], align 16

; Function Attrs: nounwind uwtable
define hidden void @IntArgbPreSrcMaskFill(ptr noundef %0, ptr noundef %1, i32 noundef %2, i32 noundef %3, i32 noundef %4, i32 noundef %5, i32 noundef %6, ptr noundef %7, ptr noundef %8, ptr noundef %9) #1 {
  %11 = alloca ptr, align 8
  %12 = alloca ptr, align 8
  %13 = alloca i32, align 4
  %14 = alloca i32, align 4
  %15 = alloca i32, align 4
  %16 = alloca i32, align 4
  %17 = alloca i32, align 4
  %18 = alloca ptr, align 8
  %19 = alloca ptr, align 8
  %20 = alloca ptr, align 8
  %21 = alloca i32, align 4
  %22 = alloca i32, align 4
  %23 = alloca i32, align 4
  %24 = alloca i32, align 4
  %25 = alloca i32, align 4
  %26 = alloca ptr, align 8
  %27 = alloca i32, align 4
  %28 = alloca i32, align 4
  %29 = alloca i32, align 4
  %30 = alloca i32, align 4
  %31 = alloca i32, align 4
  %32 = alloca i32, align 4
  %33 = alloca i32, align 4
  %34 = alloca i32, align 4
  %35 = alloca i32, align 4
  store ptr %0, ptr %11, align 8
  store ptr %1, ptr %12, align 8
  store i32 %2, ptr %13, align 4
  store i32 %3, ptr %14, align 4
  store i32 %4, ptr %15, align 4
  store i32 %5, ptr %16, align 4
  store i32 %6, ptr %17, align 4
  store ptr %7, ptr %18, align 8
  store ptr %8, ptr %19, align 8
  store ptr %9, ptr %20, align 8
  %36 = load ptr, ptr %18, align 8
  %37 = getelementptr inbounds %struct.SurfaceDataRasInfo, ptr %36, i32 0, i32 4
  %38 = load i32, ptr %37, align 8
  store i32 %38, ptr %25, align 4
  %39 = load ptr, ptr %11, align 8
  store ptr %39, ptr %26, align 8
  br label %40

40:                                               ; preds = %10
  %41 = load i32, ptr %17, align 4
  %42 = and i32 %41, 255
  store i32 %42, ptr %24, align 4
  %43 = load i32, ptr %17, align 4
  %44 = ashr i32 %43, 8
  %45 = and i32 %44, 255
  store i32 %45, ptr %23, align 4
  %46 = load i32, ptr %17, align 4
  %47 = ashr i32 %46, 16
  %48 = and i32 %47, 255
  store i32 %48, ptr %22, align 4
  %49 = load i32, ptr %17, align 4
  %50 = ashr i32 %49, 24
  %51 = and i32 %50, 255
  store i32 %51, ptr %21, align 4
  br label %52

52:                                               ; preds = %40
  %53 = load i32, ptr %21, align 4
  %54 = icmp eq i32 %53, 0
  br i1 %54, label %55, label %56

55:                                               ; preds = %52
  store i32 0, ptr %24, align 4
  store i32 0, ptr %23, align 4
  store i32 0, ptr %22, align 4
  store i32 0, ptr %17, align 4
  br label %97

56:                                               ; preds = %52
  %57 = load i32, ptr %21, align 4
  %58 = icmp ne i32 %57, 255
  br i1 %58, label %59, label %86

59:                                               ; preds = %56
  br label %60

60:                                               ; preds = %59
  %61 = load i32, ptr %21, align 4
  %62 = sext i32 %61 to i64
  %63 = getelementptr inbounds [256 x [256 x i8]], ptr @mul8table, i64 0, i64 %62
  %64 = load i32, ptr %22, align 4
  %65 = sext i32 %64 to i64
  %66 = getelementptr inbounds [256 x i8], ptr %63, i64 0, i64 %65
  %67 = load i8, ptr %66, align 1
  %68 = zext i8 %67 to i32
  store i32 %68, ptr %22, align 4
  %69 = load i32, ptr %21, align 4
  %70 = sext i32 %69 to i64
  %71 = getelementptr inbounds [256 x [256 x i8]], ptr @mul8table, i64 0, i64 %70
  %72 = load i32, ptr %23, align 4
  %73 = sext i32 %72 to i64
  %74 = getelementptr inbounds [256 x i8], ptr %71, i64 0, i64 %73
  %75 = load i8, ptr %74, align 1
  %76 = zext i8 %75 to i32
  store i32 %76, ptr %23, align 4
  %77 = load i32, ptr %21, align 4
  %78 = sext i32 %77 to i64
  %79 = getelementptr inbounds [256 x [256 x i8]], ptr @mul8table, i64 0, i64 %78
  %80 = load i32, ptr %24, align 4
  %81 = sext i32 %80 to i64
  %82 = getelementptr inbounds [256 x i8], ptr %79, i64 0, i64 %81
  %83 = load i8, ptr %82, align 1
  %84 = zext i8 %83 to i32
  store i32 %84, ptr %24, align 4
  br label %85

85:                                               ; preds = %60
  br label %86

86:                                               ; preds = %85, %56
  %87 = load i32, ptr %21, align 4
  %88 = shl i32 %87, 8
  %89 = load i32, ptr %22, align 4
  %90 = or i32 %88, %89
  %91 = shl i32 %90, 8
  %92 = load i32, ptr %23, align 4
  %93 = or i32 %91, %92
  %94 = shl i32 %93, 8
  %95 = load i32, ptr %24, align 4
  %96 = or i32 %94, %95
  store i32 %96, ptr %17, align 4
  br label %97

97:                                               ; preds = %86, %55
  store i32 0, ptr %27, align 4
  %98 = load i32, ptr %15, align 4
  %99 = mul nsw i32 %98, 4
  %100 = load i32, ptr %25, align 4
  %101 = sub nsw i32 %100, %99
  store i32 %101, ptr %25, align 4
  %102 = load ptr, ptr %12, align 8
  %103 = icmp ne ptr %102, null
  br i1 %103, label %104, label %261

104:                                              ; preds = %97
  %105 = load i32, ptr %13, align 4
  %106 = load ptr, ptr %12, align 8
  %107 = sext i32 %105 to i64
  %108 = getelementptr inbounds i8, ptr %106, i64 %107
  store ptr %108, ptr %12, align 8
  %109 = load i32, ptr %15, align 4
  %110 = load i32, ptr %14, align 4
  %111 = sub nsw i32 %110, %109
  store i32 %111, ptr %14, align 4
  br label %112

112:                                              ; preds = %256, %104
  %113 = load i32, ptr %15, align 4
  store i32 %113, ptr %28, align 4
  br label %114

114:                                              ; preds = %239, %112
  %115 = load ptr, ptr %12, align 8
  %116 = getelementptr inbounds i8, ptr %115, i32 1
  store ptr %116, ptr %12, align 8
  %117 = load i8, ptr %115, align 1
  %118 = zext i8 %117 to i32
  store i32 %118, ptr %34, align 4
  %119 = load i32, ptr %34, align 4
  %120 = icmp sgt i32 %119, 0
  br i1 %120, label %121, label %234

121:                                              ; preds = %114
  %122 = load i32, ptr %34, align 4
  %123 = icmp eq i32 %122, 255
  br i1 %123, label %124, label %128

124:                                              ; preds = %121
  %125 = load i32, ptr %17, align 4
  %126 = load ptr, ptr %26, align 8
  %127 = getelementptr inbounds i32, ptr %126, i64 0
  store i32 %125, ptr %127, align 4
  br label %233

128:                                              ; preds = %121
  %129 = load i32, ptr %34, align 4
  %130 = sub nsw i32 255, %129
  store i32 %130, ptr %33, align 4
  br label %131

131:                                              ; preds = %128
  %132 = load ptr, ptr %26, align 8
  %133 = getelementptr inbounds i32, ptr %132, i64 0
  %134 = load i32, ptr %133, align 4
  store i32 %134, ptr %27, align 4
  %135 = load i32, ptr %27, align 4
  %136 = lshr i32 %135, 24
  store i32 %136, ptr %29, align 4
  br label %137

137:                                              ; preds = %131
  %138 = load i32, ptr %33, align 4
  %139 = sext i32 %138 to i64
  %140 = getelementptr inbounds [256 x [256 x i8]], ptr @mul8table, i64 0, i64 %139
  %141 = load i32, ptr %29, align 4
  %142 = sext i32 %141 to i64
  %143 = getelementptr inbounds [256 x i8], ptr %140, i64 0, i64 %142
  %144 = load i8, ptr %143, align 1
  %145 = zext i8 %144 to i32
  store i32 %145, ptr %29, align 4
  %146 = load i32, ptr %34, align 4
  %147 = sext i32 %146 to i64
  %148 = getelementptr inbounds [256 x [256 x i8]], ptr @mul8table, i64 0, i64 %147
  %149 = load i32, ptr %21, align 4
  %150 = sext i32 %149 to i64
  %151 = getelementptr inbounds [256 x i8], ptr %148, i64 0, i64 %150
  %152 = load i8, ptr %151, align 1
  %153 = zext i8 %152 to i32
  %154 = load i32, ptr %29, align 4
  %155 = add nsw i32 %154, %153
  store i32 %155, ptr %29, align 4
  br label %156

156:                                              ; preds = %137
  br label %157

157:                                              ; preds = %156
  %158 = load i32, ptr %27, align 4
  %159 = and i32 %158, 255
  store i32 %159, ptr %32, align 4
  %160 = load i32, ptr %27, align 4
  %161 = ashr i32 %160, 8
  %162 = and i32 %161, 255
  store i32 %162, ptr %31, align 4
  %163 = load i32, ptr %27, align 4
  %164 = ashr i32 %163, 16
  %165 = and i32 %164, 255
  store i32 %165, ptr %30, align 4
  br label %166

166:                                              ; preds = %157
  br label %167

167:                                              ; preds = %166
  br label %168

168:                                              ; preds = %167
  %169 = load i32, ptr %33, align 4
  %170 = sext i32 %169 to i64
  %171 = getelementptr inbounds [256 x [256 x i8]], ptr @mul8table, i64 0, i64 %170
  %172 = load i32, ptr %30, align 4
  %173 = sext i32 %172 to i64
  %174 = getelementptr inbounds [256 x i8], ptr %171, i64 0, i64 %173
  %175 = load i8, ptr %174, align 1
  %176 = zext i8 %175 to i32
  %177 = load i32, ptr %34, align 4
  %178 = sext i32 %177 to i64
  %179 = getelementptr inbounds [256 x [256 x i8]], ptr @mul8table, i64 0, i64 %178
  %180 = load i32, ptr %22, align 4
  %181 = sext i32 %180 to i64
  %182 = getelementptr inbounds [256 x i8], ptr %179, i64 0, i64 %181
  %183 = load i8, ptr %182, align 1
  %184 = zext i8 %183 to i32
  %185 = add nsw i32 %176, %184
  store i32 %185, ptr %30, align 4
  %186 = load i32, ptr %33, align 4
  %187 = sext i32 %186 to i64
  %188 = getelementptr inbounds [256 x [256 x i8]], ptr @mul8table, i64 0, i64 %187
  %189 = load i32, ptr %31, align 4
  %190 = sext i32 %189 to i64
  %191 = getelementptr inbounds [256 x i8], ptr %188, i64 0, i64 %190
  %192 = load i8, ptr %191, align 1
  %193 = zext i8 %192 to i32
  %194 = load i32, ptr %34, align 4
  %195 = sext i32 %194 to i64
  %196 = getelementptr inbounds [256 x [256 x i8]], ptr @mul8table, i64 0, i64 %195
  %197 = load i32, ptr %23, align 4
  %198 = sext i32 %197 to i64
  %199 = getelementptr inbounds [256 x i8], ptr %196, i64 0, i64 %198
  %200 = load i8, ptr %199, align 1
  %201 = zext i8 %200 to i32
  %202 = add nsw i32 %193, %201
  store i32 %202, ptr %31, align 4
  %203 = load i32, ptr %33, align 4
  %204 = sext i32 %203 to i64
  %205 = getelementptr inbounds [256 x [256 x i8]], ptr @mul8table, i64 0, i64 %204
  %206 = load i32, ptr %32, align 4
  %207 = sext i32 %206 to i64
  %208 = getelementptr inbounds [256 x i8], ptr %205, i64 0, i64 %207
  %209 = load i8, ptr %208, align 1
  %210 = zext i8 %209 to i32
  %211 = load i32, ptr %34, align 4
  %212 = sext i32 %211 to i64
  %213 = getelementptr inbounds [256 x [256 x i8]], ptr @mul8table, i64 0, i64 %212
  %214 = load i32, ptr %24, align 4
  %215 = sext i32 %214 to i64
  %216 = getelementptr inbounds [256 x i8], ptr %213, i64 0, i64 %215
  %217 = load i8, ptr %216, align 1
  %218 = zext i8 %217 to i32
  %219 = add nsw i32 %210, %218
  store i32 %219, ptr %32, align 4
  br label %220

220:                                              ; preds = %168
  %221 = load i32, ptr %29, align 4
  %222 = shl i32 %221, 8
  %223 = load i32, ptr %30, align 4
  %224 = or i32 %222, %223
  %225 = shl i32 %224, 8
  %226 = load i32, ptr %31, align 4
  %227 = or i32 %225, %226
  %228 = shl i32 %227, 8
  %229 = load i32, ptr %32, align 4
  %230 = or i32 %228, %229
  %231 = load ptr, ptr %26, align 8
  %232 = getelementptr inbounds i32, ptr %231, i64 0
  store i32 %230, ptr %232, align 4
  br label %233

233:                                              ; preds = %220, %124
  br label %234

234:                                              ; preds = %233, %114
  %235 = load ptr, ptr %26, align 8
  %236 = ptrtoint ptr %235 to i64
  %237 = add nsw i64 %236, 4
  %238 = inttoptr i64 %237 to ptr
  store ptr %238, ptr %26, align 8
  br label %239

239:                                              ; preds = %234
  %240 = load i32, ptr %28, align 4
  %241 = add nsw i32 %240, -1
  store i32 %241, ptr %28, align 4
  %242 = icmp sgt i32 %241, 0
  br i1 %242, label %114, label %243, !llvm.loop !39

243:                                              ; preds = %239
  %244 = load ptr, ptr %26, align 8
  %245 = ptrtoint ptr %244 to i64
  %246 = load i32, ptr %25, align 4
  %247 = sext i32 %246 to i64
  %248 = add nsw i64 %245, %247
  %249 = inttoptr i64 %248 to ptr
  store ptr %249, ptr %26, align 8
  %250 = load ptr, ptr %12, align 8
  %251 = ptrtoint ptr %250 to i64
  %252 = load i32, ptr %14, align 4
  %253 = sext i32 %252 to i64
  %254 = add nsw i64 %251, %253
  %255 = inttoptr i64 %254 to ptr
  store ptr %255, ptr %12, align 8
  br label %256

256:                                              ; preds = %243
  %257 = load i32, ptr %16, align 4
  %258 = add nsw i32 %257, -1
  store i32 %258, ptr %16, align 4
  %259 = icmp sgt i32 %258, 0
  br i1 %259, label %112, label %260, !llvm.loop !40

260:                                              ; preds = %256
  br label %288

261:                                              ; preds = %97
  br label %262

262:                                              ; preds = %283, %261
  %263 = load i32, ptr %15, align 4
  store i32 %263, ptr %35, align 4
  br label %264

264:                                              ; preds = %272, %262
  %265 = load i32, ptr %17, align 4
  %266 = load ptr, ptr %26, align 8
  %267 = getelementptr inbounds i32, ptr %266, i64 0
  store i32 %265, ptr %267, align 4
  %268 = load ptr, ptr %26, align 8
  %269 = ptrtoint ptr %268 to i64
  %270 = add nsw i64 %269, 4
  %271 = inttoptr i64 %270 to ptr
  store ptr %271, ptr %26, align 8
  br label %272

272:                                              ; preds = %264
  %273 = load i32, ptr %35, align 4
  %274 = add nsw i32 %273, -1
  store i32 %274, ptr %35, align 4
  %275 = icmp sgt i32 %274, 0
  br i1 %275, label %264, label %276, !llvm.loop !41

276:                                              ; preds = %272
  %277 = load ptr, ptr %26, align 8
  %278 = ptrtoint ptr %277 to i64
  %279 = load i32, ptr %25, align 4
  %280 = sext i32 %279 to i64
  %281 = add nsw i64 %278, %280
  %282 = inttoptr i64 %281 to ptr
  store ptr %282, ptr %26, align 8
  br label %283

283:                                              ; preds = %276
  %284 = load i32, ptr %16, align 4
  %285 = add nsw i32 %284, -1
  store i32 %285, ptr %16, align 4
  %286 = icmp sgt i32 %285, 0
  br i1 %286, label %262, label %287, !llvm.loop !42

287:                                              ; preds = %283
  br label %288

288:                                              ; preds = %287, %260
  ret void
}