; Function Attrs: nofree norecurse nosync nounwind memory(readwrite, inaccessiblemem: none) uwtable
define hidden void @IntArgbPreSrcMaskFill(ptr noundef %0, ptr noundef %1, i32 noundef %2, i32 noundef %3, i32 noundef %4, i32 noundef %5, i32 noundef %6, ptr nocapture noundef readonly %7, ptr nocapture readnone %8, ptr nocapture readnone %9) #1 {
  %11 = getelementptr inbounds i8, ptr %7, i64 32
  %12 = load i32, ptr %11, align 8
  %13 = and i32 %6, 255
  %14 = lshr i32 %6, 8
  %15 = and i32 %14, 255
  %16 = lshr i32 %6, 16
  %17 = and i32 %16, 255
  %18 = lshr i32 %6, 24
  %19 = icmp ult i32 %6, 16777216
  br i1 %19, label %45, label %20

20:                                               ; preds = %10
  %.not = icmp eq i32 %18, 255
  br i1 %.not, label %35, label %21

21:                                               ; preds = %20
  %22 = zext nneg i32 %18 to i64
  %23 = zext nneg i32 %17 to i64
  %24 = getelementptr inbounds [256 x [256 x i8]], ptr @mul8table, i64 0, i64 %22, i64 %23
  %25 = load i8, ptr %24, align 1
  %26 = zext i8 %25 to i32
  %27 = zext nneg i32 %15 to i64
  %28 = getelementptr inbounds [256 x [256 x i8]], ptr @mul8table, i64 0, i64 %22, i64 %27
  %29 = load i8, ptr %28, align 1
  %30 = zext i8 %29 to i32
  %31 = zext nneg i32 %13 to i64
  %32 = getelementptr inbounds [256 x [256 x i8]], ptr @mul8table, i64 0, i64 %22, i64 %31
  %33 = load i8, ptr %32, align 1
  %34 = zext i8 %33 to i32
  br label %35

35:                                               ; preds = %21, %20
  %.084 = phi i32 [ %34, %21 ], [ %13, %20 ]
  %.079 = phi i32 [ %30, %21 ], [ %15, %20 ]
  %.077 = phi i32 [ %26, %21 ], [ %17, %20 ]
  %36 = shl nuw nsw i32 %18, 16
  %37 = shl nuw nsw i32 %.077, 8
  %38 = or disjoint i32 %37, %36
  %39 = or disjoint i32 %38, %.079
  %40 = shl nuw i32 %39, 8
  %41 = or disjoint i32 %40, %.084
  %42 = zext nneg i32 %.077 to i64
  %43 = zext nneg i32 %.079 to i64
  %44 = zext nneg i32 %.084 to i64
  br label %45

45:                                               ; preds = %10, %35
  %.185 = phi i64 [ %44, %35 ], [ 0, %10 ]
  %.180 = phi i64 [ %43, %35 ], [ 0, %10 ]
  %.178 = phi i64 [ %42, %35 ], [ 0, %10 ]
  %.076 = phi i32 [ %41, %35 ], [ 0, %10 ]
  %46 = shl nsw i32 %4, 2
  %47 = sub nsw i32 %12, %46
  %.not92 = icmp eq ptr %1, null
  br i1 %.not92, label %.preheader, label %49

.preheader:                                       ; preds = %45
  %48 = sext i32 %47 to i64
  br label %123

49:                                               ; preds = %45
  %50 = sext i32 %2 to i64
  %51 = getelementptr inbounds i8, ptr %1, i64 %50
  %52 = sub nsw i32 %3, %4
  %53 = sext i32 %47 to i64
  %54 = zext nneg i32 %18 to i64
  %55 = sext i32 %52 to i64
  br label %56

56:                                               ; preds = %115, %49
  %.082 = phi ptr [ %0, %49 ], [ %117, %115 ]
  %.074 = phi i32 [ %5, %49 ], [ %121, %115 ]
  %.073 = phi ptr [ %51, %49 ], [ %120, %115 ]
  br label %57

57:                                               ; preds = %109, %56
  %.183 = phi ptr [ %.082, %56 ], [ %112, %109 ]
  %.081 = phi i32 [ %4, %56 ], [ %113, %109 ]
  %.1 = phi ptr [ %.073, %56 ], [ %58, %109 ]
  %58 = getelementptr inbounds i8, ptr %.1, i64 1
  %59 = load i8, ptr %.1, align 1
  switch i8 %59, label %60 [
    i8 0, label %109
    i8 -1, label %.sink.split
  ]

60:                                               ; preds = %57
  %61 = xor i8 %59, -1
  %62 = load i32, ptr %.183, align 4
  %63 = lshr i32 %62, 24
  %64 = zext i8 %61 to i64
  %65 = zext nneg i32 %63 to i64
  %66 = getelementptr inbounds [256 x [256 x i8]], ptr @mul8table, i64 0, i64 %64, i64 %65
  %67 = load i8, ptr %66, align 1
  %68 = zext i8 %67 to i32
  %69 = zext i8 %59 to i64
  %70 = getelementptr inbounds [256 x [256 x i8]], ptr @mul8table, i64 0, i64 %69, i64 %54
  %71 = load i8, ptr %70, align 1
  %72 = zext i8 %71 to i32
  %73 = add nuw nsw i32 %72, %68
  %74 = and i32 %62, 255
  %75 = lshr i32 %62, 8
  %76 = and i32 %75, 255
  %77 = lshr i32 %62, 16
  %78 = and i32 %77, 255
  %79 = zext nneg i32 %78 to i64
  %80 = getelementptr inbounds [256 x [256 x i8]], ptr @mul8table, i64 0, i64 %64, i64 %79
  %81 = load i8, ptr %80, align 1
  %82 = zext i8 %81 to i32
  %83 = getelementptr inbounds [256 x [256 x i8]], ptr @mul8table, i64 0, i64 %69, i64 %.178
  %84 = load i8, ptr %83, align 1
  %85 = zext i8 %84 to i32
  %86 = add nuw nsw i32 %85, %82
  %87 = zext nneg i32 %76 to i64
  %88 = getelementptr inbounds [256 x [256 x i8]], ptr @mul8table, i64 0, i64 %64, i64 %87
  %89 = load i8, ptr %88, align 1
  %90 = zext i8 %89 to i32
  %91 = getelementptr inbounds [256 x [256 x i8]], ptr @mul8table, i64 0, i64 %69, i64 %.180
  %92 = load i8, ptr %91, align 1
  %93 = zext i8 %92 to i32
  %94 = add nuw nsw i32 %93, %90
  %95 = zext nneg i32 %74 to i64
  %96 = getelementptr inbounds [256 x [256 x i8]], ptr @mul8table, i64 0, i64 %64, i64 %95
  %97 = load i8, ptr %96, align 1
  %98 = zext i8 %97 to i32
  %99 = getelementptr inbounds [256 x [256 x i8]], ptr @mul8table, i64 0, i64 %69, i64 %.185
  %100 = load i8, ptr %99, align 1
  %101 = zext i8 %100 to i32
  %102 = add nuw nsw i32 %101, %98
  %103 = shl nuw nsw i32 %73, 16
  %104 = shl nuw nsw i32 %86, 8
  %105 = or i32 %104, %103
  %106 = or i32 %105, %94
  %107 = shl i32 %106, 8
  %108 = or i32 %107, %102
  br label %.sink.split

.sink.split:                                      ; preds = %57, %60
  %.076.sink = phi i32 [ %108, %60 ], [ %.076, %57 ]
  store i32 %.076.sink, ptr %.183, align 4
  br label %109

109:                                              ; preds = %.sink.split, %57
  %110 = ptrtoint ptr %.183 to i64
  %111 = add nsw i64 %110, 4
  %112 = inttoptr i64 %111 to ptr
  %113 = add nsw i32 %.081, -1
  %114 = icmp sgt i32 %.081, 1
  br i1 %114, label %57, label %115, !llvm.loop !39

115:                                              ; preds = %109
  %116 = add nsw i64 %111, %53
  %117 = inttoptr i64 %116 to ptr
  %118 = ptrtoint ptr %58 to i64
  %119 = add nsw i64 %118, %55
  %120 = inttoptr i64 %119 to ptr
  %121 = add nsw i32 %.074, -1
  %122 = icmp sgt i32 %.074, 1
  br i1 %122, label %56, label %.loopexit, !llvm.loop !40

123:                                              ; preds = %.preheader, %130
  %.2 = phi ptr [ %132, %130 ], [ %0, %.preheader ]
  %.175 = phi i32 [ %133, %130 ], [ %5, %.preheader ]
  br label %124

124:                                              ; preds = %124, %123
  %.3 = phi ptr [ %.2, %123 ], [ %127, %124 ]
  %.0 = phi i32 [ %4, %123 ], [ %128, %124 ]
  store i32 %.076, ptr %.3, align 4
  %125 = ptrtoint ptr %.3 to i64
  %126 = add nsw i64 %125, 4
  %127 = inttoptr i64 %126 to ptr
  %128 = add nsw i32 %.0, -1
  %129 = icmp sgt i32 %.0, 1
  br i1 %129, label %124, label %130, !llvm.loop !41

130:                                              ; preds = %124
  %131 = add nsw i64 %126, %48
  %132 = inttoptr i64 %131 to ptr
  %133 = add nsw i32 %.175, -1
  %134 = icmp sgt i32 %.175, 1
  br i1 %134, label %123, label %.loopexit, !llvm.loop !42

.loopexit:                                        ; preds = %115, %130
  ret void
}